target datalayout = "e-m:e-p270:32:32-p271:32:32-p272:64:64-i64:64-i128:128-f80:128-n8:16:32:64-S128"
target triple = "x86_64-pc-linux-gnu"

%struct._packet_info = type { ptr, ptr, i32, i32, %struct.nstime_t, %struct.nstime_t, %struct.nstime_t, i32, ptr, ptr, ptr, ptr, %struct._address, %struct._address, %struct._address, %struct._address, %struct._address, %struct._address, i32, ptr, i32, %struct.anon, i32, i32, i32, i32, ptr, i32, ptr, ptr, i16, i16, i32, i32, i16, i32, i32, ptr, ptr, ptr, i8, i8, i16, i16, i16, i32, i16, i16, ptr, ptr, ptr, ptr, ptr, i32 }
%struct.nstime_t = type { i64, i32 }
%struct._address = type { i32, i32, ptr, ptr }
%struct.anon = type { i8, [3 x i8] }

@hf_zbee_zdp_ext_addr = external global i32, align 4
@hf_zbee_zdp_index = external global i32, align 4
@hf_zbee_zdp_nwk_addr = external global i32, align 4
@.str.13 = private unnamed_addr constant [13 x i8] c", Status: %s\00", align 1
@hf_zbee_zdp_assoc_device_count = external global i32, align 4
@ett_zbee_zdp_assoc_device = external global i32, align 4
@.str.18 = private unnamed_addr constant [23 x i8] c"Associated Device List\00", align 1
@hf_zbee_zdp_assoc_device = external global i32, align 4
@.str.19 = private unnamed_addr constant [23 x i8] c", Address: %s = 0x%04x\00", align 1

; Function Attrs: nounwind uwtable
define hidden void @dissect_zbee_zdp_rsp_nwk_addr(ptr noundef %0, ptr noundef %1, ptr noundef %2) #0 {
  %4 = alloca ptr, align 8
  %5 = alloca ptr, align 8
  %6 = alloca ptr, align 8
  %7 = alloca ptr, align 8
  %8 = alloca i32, align 4
  %9 = alloca i32, align 4
  %10 = alloca i8, align 1
  %11 = alloca i64, align 8
  %12 = alloca i32, align 4
  %13 = alloca i32, align 4
  store ptr %0, ptr %4, align 8
  store ptr %1, ptr %5, align 8
  store ptr %2, ptr %6, align 8
  store ptr null, ptr %7, align 8
  store i32 0, ptr %8, align 4
  %14 = load ptr, ptr %6, align 8
  %15 = load ptr, ptr %4, align 8
  %16 = call zeroext i8 @zdp_parse_status(ptr noundef %14, ptr noundef %15, ptr noundef %8)
  store i8 %16, ptr %10, align 1
  %17 = load ptr, ptr %6, align 8
  %18 = load i32, ptr @hf_zbee_zdp_ext_addr, align 4
  %19 = load ptr, ptr %4, align 8
  %20 = call i64 @zbee_parse_eui64(ptr noundef %17, i32 noundef %18, ptr noundef %19, ptr noundef %8, i32 noundef 8, ptr noundef null)
  store i64 %20, ptr %11, align 8
  %21 = load ptr, ptr %6, align 8
  %22 = load i32, ptr @hf_zbee_zdp_nwk_addr, align 4
  %23 = load ptr, ptr %4, align 8
  %24 = load i32, ptr %8, align 4
  %25 = call ptr @proto_tree_add_item_ret_uint(ptr noundef %21, i32 noundef %22, ptr noundef %23, i32 noundef %24, i32 noundef 2, i32 noundef -2147483648, ptr noundef %12)
  %26 = load i32, ptr %8, align 4
  %27 = add i32 %26, 2
  store i32 %27, ptr %8, align 4
  %28 = load ptr, ptr %4, align 8
  %29 = load i32, ptr %8, align 4
  %30 = call i32 @tvb_bytes_exist(ptr noundef %28, i32 noundef %29, i32 noundef 1)
  %31 = icmp ne i32 %30, 0
  br i1 %31, label %32, label %77

32:                                               ; preds = %3
  %33 = load ptr, ptr %6, align 8
  %34 = load i32, ptr @hf_zbee_zdp_assoc_device_count, align 4
  %35 = load ptr, ptr %4, align 8
  %36 = load i32, ptr %8, align 4
  %37 = call ptr @proto_tree_add_item_ret_uint(ptr noundef %33, i32 noundef %34, ptr noundef %35, i32 noundef %36, i32 noundef 1, i32 noundef -2147483648, ptr noundef %13)
  %38 = load i32, ptr %8, align 4
  %39 = add i32 %38, 1
  store i32 %39, ptr %8, align 4
  %40 = load ptr, ptr %6, align 8
  %41 = icmp ne ptr %40, null
  br i1 %41, label %42, label %60

42:                                               ; preds = %32
  %43 = load i32, ptr %13, align 4
  %44 = icmp ne i32 %43, 0
  br i1 %44, label %45, label %60

45:                                               ; preds = %42
  %46 = load ptr, ptr %6, align 8
  %47 = load i32, ptr @hf_zbee_zdp_index, align 4
  %48 = load ptr, ptr %4, align 8
  %49 = load i32, ptr %8, align 4
  %50 = call ptr @proto_tree_add_item(ptr noundef %46, i32 noundef %47, ptr noundef %48, i32 noundef %49, i32 noundef 1, i32 noundef -2147483648)
  %51 = load i32, ptr %8, align 4
  %52 = add i32 %51, 1
  store i32 %52, ptr %8, align 4
  %53 = load ptr, ptr %6, align 8
  %54 = load ptr, ptr %4, align 8
  %55 = load i32, ptr %8, align 4
  %56 = load i32, ptr %13, align 4
  %57 = mul i32 %56, 2
  %58 = load i32, ptr @ett_zbee_zdp_assoc_device, align 4
  %59 = call ptr @proto_tree_add_subtree(ptr noundef %53, ptr noundef %54, i32 noundef %55, i32 noundef %57, i32 noundef %58, ptr noundef null, ptr noundef @.str.18)
  store ptr %59, ptr %7, align 8
  br label %60

60:                                               ; preds = %45, %42, %32
  store i32 0, ptr %9, align 4
  br label %61

61:                                               ; preds = %73, %60
  %62 = load i32, ptr %9, align 4
  %63 = load i32, ptr %13, align 4
  %64 = icmp ult i32 %62, %63
  br i1 %64, label %65, label %76

65:                                               ; preds = %61
  %66 = load ptr, ptr %7, align 8
  %67 = load i32, ptr @hf_zbee_zdp_assoc_device, align 4
  %68 = load ptr, ptr %4, align 8
  %69 = load i32, ptr %8, align 4
  %70 = call ptr @proto_tree_add_item(ptr noundef %66, i32 noundef %67, ptr noundef %68, i32 noundef %69, i32 noundef 2, i32 noundef -2147483648)
  %71 = load i32, ptr %8, align 4
  %72 = add i32 %71, 2
  store i32 %72, ptr %8, align 4
  br label %73

73:                                               ; preds = %65
  %74 = load i32, ptr %9, align 4
  %75 = add i32 %74, 1
  store i32 %75, ptr %9, align 4
  br label %61, !llvm.loop !11

76:                                               ; preds = %61
  br label %77

77:                                               ; preds = %76, %3
  %78 = load ptr, ptr %6, align 8
  %79 = load ptr, ptr %5, align 8
  %80 = load i8, ptr %10, align 1
  %81 = call ptr @zdp_status_name(i8 noundef zeroext %80)
  call void (ptr, ptr, ptr, ...) @zbee_append_info(ptr noundef %78, ptr noundef %79, ptr noundef @.str.13, ptr noundef %81)
  %82 = load i8, ptr %10, align 1
  %83 = zext i8 %82 to i32
  %84 = icmp eq i32 %83, 0
  br i1 %84, label %85, label %94

85:                                               ; preds = %77
  %86 = load ptr, ptr %6, align 8
  %87 = load ptr, ptr %5, align 8
  %88 = load ptr, ptr %5, align 8
  %89 = getelementptr inbounds %struct._packet_info, ptr %88, i32 0, i32 50
  %90 = load ptr, ptr %89, align 8
  %91 = load i64, ptr %11, align 8
  %92 = call ptr @eui64_to_display(ptr noundef %90, i64 noundef %91)
  %93 = load i32, ptr %12, align 4
  call void (ptr, ptr, ptr, ...) @zbee_append_info(ptr noundef %86, ptr noundef %87, ptr noundef @.str.19, ptr noundef %92, i32 noundef %93)
  br label %94

94:                                               ; preds = %85, %77
  %95 = load ptr, ptr %4, align 8
  %96 = load i32, ptr %8, align 4
  %97 = load ptr, ptr %5, align 8
  %98 = load ptr, ptr %6, align 8
  call void @zdp_dump_excess(ptr noundef %95, i32 noundef %96, ptr noundef %97, ptr noundef %98)
  ret void
}